

Microchip MPLAB XC8 Assembler V2.20 build 20200408173844 
                                                                                               Sun Oct 04 13:46:20 2020

Microchip MPLAB XC8 C Compiler v2.20 (Free license) build 20200408173844 Og1 
     1                           	processor	16F1827
     2                           	pagewidth 120
     3                           	opt	flic
     4                           	psect	idataBANK0,global,class=CODE,delta=2,noexec
     5                           	psect	cinit,global,class=CODE,merge=1,delta=2
     6                           	psect	bssCOMMON,global,class=COMMON,space=1,delta=1,noexec
     7                           	psect	bssBANK0,global,class=BANK0,space=1,delta=1,noexec
     8                           	psect	dataBANK0,global,class=BANK0,space=1,delta=1,noexec
     9                           	psect	inittext,global,class=CODE,delta=2
    10                           	psect	cstackCOMMON,global,class=COMMON,space=1,delta=1,noexec
    11                           	psect	cstackBANK0,global,class=BANK0,space=1,delta=1,noexec
    12                           	psect	maintext,global,class=CODE,merge=1,split=1,delta=2
    13                           	psect	text1,local,class=CODE,merge=1,delta=2
    14                           	psect	text2,local,class=CODE,merge=1,delta=2
    15                           	psect	text3,local,class=CODE,merge=1,delta=2
    16                           	psect	text4,local,class=CODE,merge=1,delta=2
    17                           	psect	text5,local,class=CODE,merge=1,delta=2
    18                           	psect	text6,local,class=CODE,merge=1,delta=2
    19                           	psect	text7,local,class=CODE,merge=1,delta=2
    20                           	psect	text8,local,class=CODE,merge=1,delta=2
    21                           	psect	text9,local,class=CODE,merge=1,delta=2
    22                           	psect	text10,local,class=CODE,merge=1,delta=2
    23                           	psect	config,global,abs,ovrld,class=CONFIG,space=4,delta=2,noexec
    24                           	dabs	1,0x7E,2
    25  0000                     
    26                           ; Version 2.20
    27                           ; Generated 12/02/2020 GMT
    28                           ; 
    29                           ; Copyright © 2020, Microchip Technology Inc. and its subsidiaries ("Microchip")
    30                           ; All rights reserved.
    31                           ; 
    32                           ; This software is developed by Microchip Technology Inc. and its subsidiaries ("Microch
      +                          ip").
    33                           ; 
    34                           ; Redistribution and use in source and binary forms, with or without modification, are
    35                           ; permitted provided that the following conditions are met:
    36                           ; 
    37                           ;     1. Redistributions of source code must retain the above copyright notice, this lis
      +                          t of
    38                           ;        conditions and the following disclaimer.
    39                           ; 
    40                           ;     2. Redistributions in binary form must reproduce the above copyright notice, this 
      +                          list
    41                           ;        of conditions and the following disclaimer in the documentation and/or other
    42                           ;        materials provided with the distribution.
    43                           ; 
    44                           ;     3. Microchip's name may not be used to endorse or promote products derived from th
      +                          is
    45                           ;        software without specific prior written permission.
    46                           ; 
    47                           ; THIS SOFTWARE IS PROVIDED BY MICROCHIP "AS IS" AND ANY EXPRESS OR IMPLIED WARRANTIES,
    48                           ; INCLUDING, BUT NOT LIMITED TO, THE IMPLIED WARRANTIES OF MERCHANTABILITY AND FITNESS F
      +                          OR
    49                           ; PURPOSE ARE DISCLAIMED.  IN NO EVENT SHALL MICROCHIP BE LIABLE FOR ANY DIRECT, INDIREC
      +                          T,
    50                           ; INCIDENTAL, SPECIAL, EXEMPLARY, OR CONSEQUENTIAL DAMAGES (INCLUDING BUT NOT LIMITED TO
    51                           ; PROCUREMENT OF SUBSTITUTE GOODS OR SERVICES; LOSS OF USE, DATA OR PROFITS; OR BUSINESS
    52                           ; INTERRUPTION) HOWSOEVER CAUSED AND ON ANY THEORY OF LIABILITY, WHETHER IN CONTRACT, ST
      +                          RICT
    53                           ; LIABILITY, OR TORT (INCLUDING NEGLIGENCE OR OTHERWISE) ARISING IN ANY WAY OUT OF THE U
      +                          SE OF
    54                           ; THIS SOFTWARE, EVEN IF ADVISED OF THE POSSIBILITY OF SUCH DAMAGE.
    55                           ; 
    56                           ; 
    57                           ; Code-generator required, PIC16F1827 Definitions
    58                           ; 
    59                           ; SFR Addresses
    60  0000                     	;# 
    61  0001                     	;# 
    62  0002                     	;# 
    63  0003                     	;# 
    64  0004                     	;# 
    65  0005                     	;# 
    66  0006                     	;# 
    67  0007                     	;# 
    68  0008                     	;# 
    69  0009                     	;# 
    70  000A                     	;# 
    71  000B                     	;# 
    72  000C                     	;# 
    73  000D                     	;# 
    74  0011                     	;# 
    75  0012                     	;# 
    76  0013                     	;# 
    77  0014                     	;# 
    78  0015                     	;# 
    79  0016                     	;# 
    80  0016                     	;# 
    81  0017                     	;# 
    82  0018                     	;# 
    83  0019                     	;# 
    84  001A                     	;# 
    85  001B                     	;# 
    86  001C                     	;# 
    87  001E                     	;# 
    88  001F                     	;# 
    89  008C                     	;# 
    90  008D                     	;# 
    91  0091                     	;# 
    92  0092                     	;# 
    93  0093                     	;# 
    94  0094                     	;# 
    95  0095                     	;# 
    96  0096                     	;# 
    97  0097                     	;# 
    98  0098                     	;# 
    99  0099                     	;# 
   100  009A                     	;# 
   101  009B                     	;# 
   102  009B                     	;# 
   103  009C                     	;# 
   104  009D                     	;# 
   105  009E                     	;# 
   106  010C                     	;# 
   107  010D                     	;# 
   108  0111                     	;# 
   109  0112                     	;# 
   110  0113                     	;# 
   111  0114                     	;# 
   112  0115                     	;# 
   113  0116                     	;# 
   114  0117                     	;# 
   115  0118                     	;# 
   116  0119                     	;# 
   117  011A                     	;# 
   118  011B                     	;# 
   119  011D                     	;# 
   120  011E                     	;# 
   121  018C                     	;# 
   122  018D                     	;# 
   123  0191                     	;# 
   124  0191                     	;# 
   125  0192                     	;# 
   126  0193                     	;# 
   127  0193                     	;# 
   128  0193                     	;# 
   129  0194                     	;# 
   130  0195                     	;# 
   131  0196                     	;# 
   132  0199                     	;# 
   133  019A                     	;# 
   134  019B                     	;# 
   135  019B                     	;# 
   136  019B                     	;# 
   137  019B                     	;# 
   138  019C                     	;# 
   139  019C                     	;# 
   140  019D                     	;# 
   141  019E                     	;# 
   142  019F                     	;# 
   143  020C                     	;# 
   144  020D                     	;# 
   145  0211                     	;# 
   146  0211                     	;# 
   147  0212                     	;# 
   148  0212                     	;# 
   149  0213                     	;# 
   150  0213                     	;# 
   151  0214                     	;# 
   152  0214                     	;# 
   153  0215                     	;# 
   154  0215                     	;# 
   155  0215                     	;# 
   156  0216                     	;# 
   157  0216                     	;# 
   158  0217                     	;# 
   159  0217                     	;# 
   160  0219                     	;# 
   161  021A                     	;# 
   162  021B                     	;# 
   163  021C                     	;# 
   164  021D                     	;# 
   165  021E                     	;# 
   166  021F                     	;# 
   167  0291                     	;# 
   168  0291                     	;# 
   169  0292                     	;# 
   170  0293                     	;# 
   171  0294                     	;# 
   172  0295                     	;# 
   173  0295                     	;# 
   174  0296                     	;# 
   175  0298                     	;# 
   176  0298                     	;# 
   177  0299                     	;# 
   178  029A                     	;# 
   179  029B                     	;# 
   180  029C                     	;# 
   181  029C                     	;# 
   182  029D                     	;# 
   183  029E                     	;# 
   184  029E                     	;# 
   185  0311                     	;# 
   186  0311                     	;# 
   187  0312                     	;# 
   188  0313                     	;# 
   189  0318                     	;# 
   190  0318                     	;# 
   191  0319                     	;# 
   192  031A                     	;# 
   193  0394                     	;# 
   194  0395                     	;# 
   195  0396                     	;# 
   196  039A                     	;# 
   197  039C                     	;# 
   198  039D                     	;# 
   199  039E                     	;# 
   200  039F                     	;# 
   201  0415                     	;# 
   202  0416                     	;# 
   203  0417                     	;# 
   204  041C                     	;# 
   205  041D                     	;# 
   206  041E                     	;# 
   207  0FE4                     	;# 
   208  0FE5                     	;# 
   209  0FE6                     	;# 
   210  0FE7                     	;# 
   211  0FE8                     	;# 
   212  0FE9                     	;# 
   213  0FEA                     	;# 
   214  0FEB                     	;# 
   215  0FED                     	;# 
   216  0FEE                     	;# 
   217  0FEF                     	;# 
   218  0000                     	;# 
   219  0001                     	;# 
   220  0002                     	;# 
   221  0003                     	;# 
   222  0004                     	;# 
   223  0005                     	;# 
   224  0006                     	;# 
   225  0007                     	;# 
   226  0008                     	;# 
   227  0009                     	;# 
   228  000A                     	;# 
   229  000B                     	;# 
   230  000C                     	;# 
   231  000D                     	;# 
   232  0011                     	;# 
   233  0012                     	;# 
   234  0013                     	;# 
   235  0014                     	;# 
   236  0015                     	;# 
   237  0016                     	;# 
   238  0016                     	;# 
   239  0017                     	;# 
   240  0018                     	;# 
   241  0019                     	;# 
   242  001A                     	;# 
   243  001B                     	;# 
   244  001C                     	;# 
   245  001E                     	;# 
   246  001F                     	;# 
   247  008C                     	;# 
   248  008D                     	;# 
   249  0091                     	;# 
   250  0092                     	;# 
   251  0093                     	;# 
   252  0094                     	;# 
   253  0095                     	;# 
   254  0096                     	;# 
   255  0097                     	;# 
   256  0098                     	;# 
   257  0099                     	;# 
   258  009A                     	;# 
   259  009B                     	;# 
   260  009B                     	;# 
   261  009C                     	;# 
   262  009D                     	;# 
   263  009E                     	;# 
   264  010C                     	;# 
   265  010D                     	;# 
   266  0111                     	;# 
   267  0112                     	;# 
   268  0113                     	;# 
   269  0114                     	;# 
   270  0115                     	;# 
   271  0116                     	;# 
   272  0117                     	;# 
   273  0118                     	;# 
   274  0119                     	;# 
   275  011A                     	;# 
   276  011B                     	;# 
   277  011D                     	;# 
   278  011E                     	;# 
   279  018C                     	;# 
   280  018D                     	;# 
   281  0191                     	;# 
   282  0191                     	;# 
   283  0192                     	;# 
   284  0193                     	;# 
   285  0193                     	;# 
   286  0193                     	;# 
   287  0194                     	;# 
   288  0195                     	;# 
   289  0196                     	;# 
   290  0199                     	;# 
   291  019A                     	;# 
   292  019B                     	;# 
   293  019B                     	;# 
   294  019B                     	;# 
   295  019B                     	;# 
   296  019C                     	;# 
   297  019C                     	;# 
   298  019D                     	;# 
   299  019E                     	;# 
   300  019F                     	;# 
   301  020C                     	;# 
   302  020D                     	;# 
   303  0211                     	;# 
   304  0211                     	;# 
   305  0212                     	;# 
   306  0212                     	;# 
   307  0213                     	;# 
   308  0213                     	;# 
   309  0214                     	;# 
   310  0214                     	;# 
   311  0215                     	;# 
   312  0215                     	;# 
   313  0215                     	;# 
   314  0216                     	;# 
   315  0216                     	;# 
   316  0217                     	;# 
   317  0217                     	;# 
   318  0219                     	;# 
   319  021A                     	;# 
   320  021B                     	;# 
   321  021C                     	;# 
   322  021D                     	;# 
   323  021E                     	;# 
   324  021F                     	;# 
   325  0291                     	;# 
   326  0291                     	;# 
   327  0292                     	;# 
   328  0293                     	;# 
   329  0294                     	;# 
   330  0295                     	;# 
   331  0295                     	;# 
   332  0296                     	;# 
   333  0298                     	;# 
   334  0298                     	;# 
   335  0299                     	;# 
   336  029A                     	;# 
   337  029B                     	;# 
   338  029C                     	;# 
   339  029C                     	;# 
   340  029D                     	;# 
   341  029E                     	;# 
   342  029E                     	;# 
   343  0311                     	;# 
   344  0311                     	;# 
   345  0312                     	;# 
   346  0313                     	;# 
   347  0318                     	;# 
   348  0318                     	;# 
   349  0319                     	;# 
   350  031A                     	;# 
   351  0394                     	;# 
   352  0395                     	;# 
   353  0396                     	;# 
   354  039A                     	;# 
   355  039C                     	;# 
   356  039D                     	;# 
   357  039E                     	;# 
   358  039F                     	;# 
   359  0415                     	;# 
   360  0416                     	;# 
   361  0417                     	;# 
   362  041C                     	;# 
   363  041D                     	;# 
   364  041E                     	;# 
   365  0FE4                     	;# 
   366  0FE5                     	;# 
   367  0FE6                     	;# 
   368  0FE7                     	;# 
   369  0FE8                     	;# 
   370  0FE9                     	;# 
   371  0FEA                     	;# 
   372  0FEB                     	;# 
   373  0FED                     	;# 
   374  0FEE                     	;# 
   375  0FEF                     	;# 
   376  0000                     	;# 
   377  0001                     	;# 
   378  0002                     	;# 
   379  0003                     	;# 
   380  0004                     	;# 
   381  0005                     	;# 
   382  0006                     	;# 
   383  0007                     	;# 
   384  0008                     	;# 
   385  0009                     	;# 
   386  000A                     	;# 
   387  000B                     	;# 
   388  000C                     	;# 
   389  000D                     	;# 
   390  0011                     	;# 
   391  0012                     	;# 
   392  0013                     	;# 
   393  0014                     	;# 
   394  0015                     	;# 
   395  0016                     	;# 
   396  0016                     	;# 
   397  0017                     	;# 
   398  0018                     	;# 
   399  0019                     	;# 
   400  001A                     	;# 
   401  001B                     	;# 
   402  001C                     	;# 
   403  001E                     	;# 
   404  001F                     	;# 
   405  008C                     	;# 
   406  008D                     	;# 
   407  0091                     	;# 
   408  0092                     	;# 
   409  0093                     	;# 
   410  0094                     	;# 
   411  0095                     	;# 
   412  0096                     	;# 
   413  0097                     	;# 
   414  0098                     	;# 
   415  0099                     	;# 
   416  009A                     	;# 
   417  009B                     	;# 
   418  009B                     	;# 
   419  009C                     	;# 
   420  009D                     	;# 
   421  009E                     	;# 
   422  010C                     	;# 
   423  010D                     	;# 
   424  0111                     	;# 
   425  0112                     	;# 
   426  0113                     	;# 
   427  0114                     	;# 
   428  0115                     	;# 
   429  0116                     	;# 
   430  0117                     	;# 
   431  0118                     	;# 
   432  0119                     	;# 
   433  011A                     	;# 
   434  011B                     	;# 
   435  011D                     	;# 
   436  011E                     	;# 
   437  018C                     	;# 
   438  018D                     	;# 
   439  0191                     	;# 
   440  0191                     	;# 
   441  0192                     	;# 
   442  0193                     	;# 
   443  0193                     	;# 
   444  0193                     	;# 
   445  0194                     	;# 
   446  0195                     	;# 
   447  0196                     	;# 
   448  0199                     	;# 
   449  019A                     	;# 
   450  019B                     	;# 
   451  019B                     	;# 
   452  019B                     	;# 
   453  019B                     	;# 
   454  019C                     	;# 
   455  019C                     	;# 
   456  019D                     	;# 
   457  019E                     	;# 
   458  019F                     	;# 
   459  020C                     	;# 
   460  020D                     	;# 
   461  0211                     	;# 
   462  0211                     	;# 
   463  0212                     	;# 
   464  0212                     	;# 
   465  0213                     	;# 
   466  0213                     	;# 
   467  0214                     	;# 
   468  0214                     	;# 
   469  0215                     	;# 
   470  0215                     	;# 
   471  0215                     	;# 
   472  0216                     	;# 
   473  0216                     	;# 
   474  0217                     	;# 
   475  0217                     	;# 
   476  0219                     	;# 
   477  021A                     	;# 
   478  021B                     	;# 
   479  021C                     	;# 
   480  021D                     	;# 
   481  021E                     	;# 
   482  021F                     	;# 
   483  0291                     	;# 
   484  0291                     	;# 
   485  0292                     	;# 
   486  0293                     	;# 
   487  0294                     	;# 
   488  0295                     	;# 
   489  0295                     	;# 
   490  0296                     	;# 
   491  0298                     	;# 
   492  0298                     	;# 
   493  0299                     	;# 
   494  029A                     	;# 
   495  029B                     	;# 
   496  029C                     	;# 
   497  029C                     	;# 
   498  029D                     	;# 
   499  029E                     	;# 
   500  029E                     	;# 
   501  0311                     	;# 
   502  0311                     	;# 
   503  0312                     	;# 
   504  0313                     	;# 
   505  0318                     	;# 
   506  0318                     	;# 
   507  0319                     	;# 
   508  031A                     	;# 
   509  0394                     	;# 
   510  0395                     	;# 
   511  0396                     	;# 
   512  039A                     	;# 
   513  039C                     	;# 
   514  039D                     	;# 
   515  039E                     	;# 
   516  039F                     	;# 
   517  0415                     	;# 
   518  0416                     	;# 
   519  0417                     	;# 
   520  041C                     	;# 
   521  041D                     	;# 
   522  041E                     	;# 
   523  0FE4                     	;# 
   524  0FE5                     	;# 
   525  0FE6                     	;# 
   526  0FE7                     	;# 
   527  0FE8                     	;# 
   528  0FE9                     	;# 
   529  0FEA                     	;# 
   530  0FEB                     	;# 
   531  0FED                     	;# 
   532  0FEE                     	;# 
   533  0FEF                     	;# 
   534  0000                     	;# 
   535  0001                     	;# 
   536  0002                     	;# 
   537  0003                     	;# 
   538  0004                     	;# 
   539  0005                     	;# 
   540  0006                     	;# 
   541  0007                     	;# 
   542  0008                     	;# 
   543  0009                     	;# 
   544  000A                     	;# 
   545  000B                     	;# 
   546  000C                     	;# 
   547  000D                     	;# 
   548  0011                     	;# 
   549  0012                     	;# 
   550  0013                     	;# 
   551  0014                     	;# 
   552  0015                     	;# 
   553  0016                     	;# 
   554  0016                     	;# 
   555  0017                     	;# 
   556  0018                     	;# 
   557  0019                     	;# 
   558  001A                     	;# 
   559  001B                     	;# 
   560  001C                     	;# 
   561  001E                     	;# 
   562  001F                     	;# 
   563  008C                     	;# 
   564  008D                     	;# 
   565  0091                     	;# 
   566  0092                     	;# 
   567  0093                     	;# 
   568  0094                     	;# 
   569  0095                     	;# 
   570  0096                     	;# 
   571  0097                     	;# 
   572  0098                     	;# 
   573  0099                     	;# 
   574  009A                     	;# 
   575  009B                     	;# 
   576  009B                     	;# 
   577  009C                     	;# 
   578  009D                     	;# 
   579  009E                     	;# 
   580  010C                     	;# 
   581  010D                     	;# 
   582  0111                     	;# 
   583  0112                     	;# 
   584  0113                     	;# 
   585  0114                     	;# 
   586  0115                     	;# 
   587  0116                     	;# 
   588  0117                     	;# 
   589  0118                     	;# 
   590  0119                     	;# 
   591  011A                     	;# 
   592  011B                     	;# 
   593  011D                     	;# 
   594  011E                     	;# 
   595  018C                     	;# 
   596  018D                     	;# 
   597  0191                     	;# 
   598  0191                     	;# 
   599  0192                     	;# 
   600  0193                     	;# 
   601  0193                     	;# 
   602  0193                     	;# 
   603  0194                     	;# 
   604  0195                     	;# 
   605  0196                     	;# 
   606  0199                     	;# 
   607  019A                     	;# 
   608  019B                     	;# 
   609  019B                     	;# 
   610  019B                     	;# 
   611  019B                     	;# 
   612  019C                     	;# 
   613  019C                     	;# 
   614  019D                     	;# 
   615  019E                     	;# 
   616  019F                     	;# 
   617  020C                     	;# 
   618  020D                     	;# 
   619  0211                     	;# 
   620  0211                     	;# 
   621  0212                     	;# 
   622  0212                     	;# 
   623  0213                     	;# 
   624  0213                     	;# 
   625  0214                     	;# 
   626  0214                     	;# 
   627  0215                     	;# 
   628  0215                     	;# 
   629  0215                     	;# 
   630  0216                     	;# 
   631  0216                     	;# 
   632  0217                     	;# 
   633  0217                     	;# 
   634  0219                     	;# 
   635  021A                     	;# 
   636  021B                     	;# 
   637  021C                     	;# 
   638  021D                     	;# 
   639  021E                     	;# 
   640  021F                     	;# 
   641  0291                     	;# 
   642  0291                     	;# 
   643  0292                     	;# 
   644  0293                     	;# 
   645  0294                     	;# 
   646  0295                     	;# 
   647  0295                     	;# 
   648  0296                     	;# 
   649  0298                     	;# 
   650  0298                     	;# 
   651  0299                     	;# 
   652  029A                     	;# 
   653  029B                     	;# 
   654  029C                     	;# 
   655  029C                     	;# 
   656  029D                     	;# 
   657  029E                     	;# 
   658  029E                     	;# 
   659  0311                     	;# 
   660  0311                     	;# 
   661  0312                     	;# 
   662  0313                     	;# 
   663  0318                     	;# 
   664  0318                     	;# 
   665  0319                     	;# 
   666  031A                     	;# 
   667  0394                     	;# 
   668  0395                     	;# 
   669  0396                     	;# 
   670  039A                     	;# 
   671  039C                     	;# 
   672  039D                     	;# 
   673  039E                     	;# 
   674  039F                     	;# 
   675  0415                     	;# 
   676  0416                     	;# 
   677  0417                     	;# 
   678  041C                     	;# 
   679  041D                     	;# 
   680  041E                     	;# 
   681  0FE4                     	;# 
   682  0FE5                     	;# 
   683  0FE6                     	;# 
   684  0FE7                     	;# 
   685  0FE8                     	;# 
   686  0FE9                     	;# 
   687  0FEA                     	;# 
   688  0FEB                     	;# 
   689  0FED                     	;# 
   690  0FEE                     	;# 
   691  0FEF                     	;# 
   692  0000                     	;# 
   693  0001                     	;# 
   694  0002                     	;# 
   695  0003                     	;# 
   696  0004                     	;# 
   697  0005                     	;# 
   698  0006                     	;# 
   699  0007                     	;# 
   700  0008                     	;# 
   701  0009                     	;# 
   702  000A                     	;# 
   703  000B                     	;# 
   704  000C                     	;# 
   705  000D                     	;# 
   706  0011                     	;# 
   707  0012                     	;# 
   708  0013                     	;# 
   709  0014                     	;# 
   710  0015                     	;# 
   711  0016                     	;# 
   712  0016                     	;# 
   713  0017                     	;# 
   714  0018                     	;# 
   715  0019                     	;# 
   716  001A                     	;# 
   717  001B                     	;# 
   718  001C                     	;# 
   719  001E                     	;# 
   720  001F                     	;# 
   721  008C                     	;# 
   722  008D                     	;# 
   723  0091                     	;# 
   724  0092                     	;# 
   725  0093                     	;# 
   726  0094                     	;# 
   727  0095                     	;# 
   728  0096                     	;# 
   729  0097                     	;# 
   730  0098                     	;# 
   731  0099                     	;# 
   732  009A                     	;# 
   733  009B                     	;# 
   734  009B                     	;# 
   735  009C                     	;# 
   736  009D                     	;# 
   737  009E                     	;# 
   738  010C                     	;# 
   739  010D                     	;# 
   740  0111                     	;# 
   741  0112                     	;# 
   742  0113                     	;# 
   743  0114                     	;# 
   744  0115                     	;# 
   745  0116                     	;# 
   746  0117                     	;# 
   747  0118                     	;# 
   748  0119                     	;# 
   749  011A                     	;# 
   750  011B                     	;# 
   751  011D                     	;# 
   752  011E                     	;# 
   753  018C                     	;# 
   754  018D                     	;# 
   755  0191                     	;# 
   756  0191                     	;# 
   757  0192                     	;# 
   758  0193                     	;# 
   759  0193                     	;# 
   760  0193                     	;# 
   761  0194                     	;# 
   762  0195                     	;# 
   763  0196                     	;# 
   764  0199                     	;# 
   765  019A                     	;# 
   766  019B                     	;# 
   767  019B                     	;# 
   768  019B                     	;# 
   769  019B                     	;# 
   770  019C                     	;# 
   771  019C                     	;# 
   772  019D                     	;# 
   773  019E                     	;# 
   774  019F                     	;# 
   775  020C                     	;# 
   776  020D                     	;# 
   777  0211                     	;# 
   778  0211                     	;# 
   779  0212                     	;# 
   780  0212                     	;# 
   781  0213                     	;# 
   782  0213                     	;# 
   783  0214                     	;# 
   784  0214                     	;# 
   785  0215                     	;# 
   786  0215                     	;# 
   787  0215                     	;# 
   788  0216                     	;# 
   789  0216                     	;# 
   790  0217                     	;# 
   791  0217                     	;# 
   792  0219                     	;# 
   793  021A                     	;# 
   794  021B                     	;# 
   795  021C                     	;# 
   796  021D                     	;# 
   797  021E                     	;# 
   798  021F                     	;# 
   799  0291                     	;# 
   800  0291                     	;# 
   801  0292                     	;# 
   802  0293                     	;# 
   803  0294                     	;# 
   804  0295                     	;# 
   805  0295                     	;# 
   806  0296                     	;# 
   807  0298                     	;# 
   808  0298                     	;# 
   809  0299                     	;# 
   810  029A                     	;# 
   811  029B                     	;# 
   812  029C                     	;# 
   813  029C                     	;# 
   814  029D                     	;# 
   815  029E                     	;# 
   816  029E                     	;# 
   817  0311                     	;# 
   818  0311                     	;# 
   819  0312                     	;# 
   820  0313                     	;# 
   821  0318                     	;# 
   822  0318                     	;# 
   823  0319                     	;# 
   824  031A                     	;# 
   825  0394                     	;# 
   826  0395                     	;# 
   827  0396                     	;# 
   828  039A                     	;# 
   829  039C                     	;# 
   830  039D                     	;# 
   831  039E                     	;# 
   832  039F                     	;# 
   833  0415                     	;# 
   834  0416                     	;# 
   835  0417                     	;# 
   836  041C                     	;# 
   837  041D                     	;# 
   838  041E                     	;# 
   839  0FE4                     	;# 
   840  0FE5                     	;# 
   841  0FE6                     	;# 
   842  0FE7                     	;# 
   843  0FE8                     	;# 
   844  0FE9                     	;# 
   845  0FEA                     	;# 
   846  0FEB                     	;# 
   847  0FED                     	;# 
   848  0FEE                     	;# 
   849  0FEF                     	;# 
   850                           
   851                           	psect	idataBANK0
   852  06E3                     __pidataBANK0:
   853                           
   854                           ;initializer for _segdata
   855  06E3  343F               	retlw	63
   856  06E4  3406               	retlw	6
   857  06E5  345B               	retlw	91
   858  06E6  344F               	retlw	79
   859  06E7  3466               	retlw	102
   860  06E8  346D               	retlw	109
   861  06E9  347D               	retlw	125
   862  06EA  3407               	retlw	7
   863  06EB  347F               	retlw	127
   864  06EC  346F               	retlw	111
   865                           
   866                           ;initializer for main@F2502
   867  06ED  34FF               	retlw	255
   868  06EE  34FF               	retlw	255
   869  06EF  34FF               	retlw	255
   870  06F0  34FF               	retlw	255
   871  000D                     _PORTBbits	set	13
   872  008D                     _TRISBbits	set	141
   873  0095                     _OPTION_REGbits	set	149
   874  008D                     _TRISB	set	141
   875  008C                     _TRISA	set	140
   876  0097                     _WDTCON	set	151
   877  0098                     _OSCTUNE	set	152
   878  0099                     _OSCCON	set	153
   879  010D                     _LATBbits	set	269
   880  010C                     _LATAbits	set	268
   881  011E                     _APFCON1	set	286
   882  011D                     _APFCON0	set	285
   883  010D                     _LATB	set	269
   884  010C                     _LATA	set	268
   885  0116                     _BORCON	set	278
   886  018C                     _ANSELA	set	396
   887  018D                     _ANSELB	set	397
   888  020C                     _WPUA	set	524
   889  020D                     _WPUB	set	525
   890                           
   891                           	psect	cinit
   892  07EC                     start_initialization:	
   893                           ; #config settings
   894                           
   895  07EC                     __initialization:
   896                           
   897                           ; Initialize objects allocated to BANK0
   898  07EC  30E3               	movlw	low __pidataBANK0
   899  07ED  0084               	movwf	4
   900  07EE  3086               	movlw	(high __pidataBANK0)| (0+128)
   901  07EF  0085               	movwf	5
   902  07F0  3020               	movlw	low __pdataBANK0
   903  07F1  0086               	movwf	6
   904  07F2  3000               	movlw	high __pdataBANK0
   905  07F3  0087               	movwf	7
   906  07F4  300E               	movlw	14
   907  07F5  3186  26BF  3187   	fcall	init_ram
   908                           
   909                           ; Clear objects allocated to COMMON
   910  07F8  01FD               	clrf	__pbssCOMMON& (0+127)
   911                           
   912                           ; Clear objects allocated to BANK0
   913  07F9  01B6               	clrf	__pbssBANK0& (0+127)
   914  07FA  01B7               	clrf	(__pbssBANK0+1)& (0+127)
   915  07FB  01B8               	clrf	(__pbssBANK0+2)& (0+127)
   916  07FC  01B9               	clrf	(__pbssBANK0+3)& (0+127)
   917  07FD                     end_of_initialization:	
   918                           ;End of C runtime variable initialization code
   919                           
   920  07FD                     __end_of__initialization:
   921  07FD  0020               	movlb	0
   922  07FE  3187  2F3B         	ljmp	_main	;jump to C main() function
   923                           
   924                           	psect	bssCOMMON
   925  007D                     __pbssCOMMON:
   926  007D                     _m_brightness:
   927  007D                     	ds	1
   928                           
   929                           	psect	bssBANK0
   930  0036                     __pbssBANK0:
   931  0036                     main@F2504:
   932  0036                     	ds	4
   933                           
   934                           	psect	dataBANK0
   935  0020                     __pdataBANK0:
   936  0020                     _segdata:
   937  0020                     	ds	10
   938  002A                     main@F2502:
   939  002A                     	ds	4
   940                           
   941                           	psect	inittext
   942  06BF                     init_ram:
   943  06BF  00FE               	movwf	btemp
   944  06C0                     initloop:
   945  06C0  0012               	moviw fsr0++
   946  06C1  001E               	movwi fsr1++
   947  06C2  0BFE               	decfsz	btemp,f
   948  06C3  2EC0               	goto	initloop
   949  06C4  3400               	retlw	0
   950                           
   951                           	psect	cstackCOMMON
   952  0070                     __pcstackCOMMON:
   953  0070                     ?_PIN_MANAGER_Initialize:
   954  0070                     ??_PIN_MANAGER_Initialize:	
   955                           ; 1 bytes @ 0x0
   956                           
   957  0070                     ?_OSCILLATOR_Initialize:	
   958                           ; 1 bytes @ 0x0
   959                           
   960  0070                     ??_OSCILLATOR_Initialize:	
   961                           ; 1 bytes @ 0x0
   962                           
   963  0070                     ?_WDT_Initialize:	
   964                           ; 1 bytes @ 0x0
   965                           
   966  0070                     ??_WDT_Initialize:	
   967                           ; 1 bytes @ 0x0
   968                           
   969  0070                     ?_set_brigthness:	
   970                           ; 1 bytes @ 0x0
   971                           
   972  0070                     ?_bit_delay:	
   973                           ; 1 bytes @ 0x0
   974                           
   975  0070                     ??_bit_delay:	
   976                           ; 1 bytes @ 0x0
   977                           
   978  0070                     ?_SYSTEM_Initialize:	
   979                           ; 1 bytes @ 0x0
   980                           
   981  0070                     ??_SYSTEM_Initialize:	
   982                           ; 1 bytes @ 0x0
   983                           
   984  0070                     ?_main:	
   985                           ; 1 bytes @ 0x0
   986                           
   987  0070                     ?_start:	
   988                           ; 1 bytes @ 0x0
   989                           
   990  0070                     ?_stop:	
   991                           ; 1 bytes @ 0x0
   992                           
   993  0070                     ?_write_byte:	
   994                           ; 1 bytes @ 0x0
   995                           
   996  0070                     set_brigthness@on:	
   997                           ; 1 bytes @ 0x0
   998                           
   999                           
  1000                           ; 1 bytes @ 0x0
  1001  0070                     	ds	1
  1002  0071                     ??_set_brigthness:
  1003                           
  1004                           ; 1 bytes @ 0x1
  1005  0071                     	ds	1
  1006  0072                     ??_start:
  1007  0072                     ??_stop:	
  1008                           ; 1 bytes @ 0x2
  1009                           
  1010  0072                     ??_write_byte:	
  1011                           ; 1 bytes @ 0x2
  1012                           
  1013  0072                     set_brigthness@brightness:	
  1014                           ; 1 bytes @ 0x2
  1015                           
  1016                           
  1017                           ; 1 bytes @ 0x2
  1018  0072                     	ds	1
  1019  0073                     write_byte@b:
  1020                           
  1021                           ; 1 bytes @ 0x3
  1022  0073                     	ds	1
  1023  0074                     write_byte@ack:
  1024                           
  1025                           ; 1 bytes @ 0x4
  1026  0074                     	ds	1
  1027  0075                     write_byte@data:
  1028                           
  1029                           ; 1 bytes @ 0x5
  1030  0075                     	ds	1
  1031  0076                     write_byte@i:
  1032                           
  1033                           ; 1 bytes @ 0x6
  1034  0076                     	ds	1
  1035  0077                     ?_set_segments:
  1036  0077                     set_segments@length:	
  1037                           ; 1 bytes @ 0x7
  1038                           
  1039                           
  1040                           ; 1 bytes @ 0x7
  1041  0077                     	ds	1
  1042  0078                     set_segments@pos:
  1043                           
  1044                           ; 1 bytes @ 0x8
  1045  0078                     	ds	1
  1046  0079                     ??_set_segments:
  1047                           
  1048                           ; 1 bytes @ 0x9
  1049  0079                     	ds	1
  1050  007A                     set_segments@segments:
  1051                           
  1052                           ; 1 bytes @ 0xA
  1053  007A                     	ds	1
  1054  007B                     set_segments@k:
  1055                           
  1056                           ; 1 bytes @ 0xB
  1057  007B                     	ds	1
  1058  007C                     ??_main:
  1059                           
  1060                           ; 1 bytes @ 0xC
  1061  007C                     	ds	1
  1062                           
  1063                           	psect	cstackBANK0
  1064  002E                     __pcstackBANK0:
  1065  002E                     main@blank:
  1066                           
  1067                           ; 4 bytes @ 0x0
  1068  002E                     	ds	4
  1069  0032                     main@data:
  1070                           
  1071                           ; 4 bytes @ 0x4
  1072  0032                     	ds	4
  1073                           
  1074                           	psect	maintext
  1075  073B                     __pmaintext:	
  1076 ;;
  1077 ;;Main: autosize = 0, tempsize = 1, incstack = 0, save=0
  1078 ;;
  1079 ;; *************** function _main *****************
  1080 ;; Defined at:
  1081 ;;		line 8 in file "main.c"
  1082 ;; Parameters:    Size  Location     Type
  1083 ;;		None
  1084 ;; Auto vars:     Size  Location     Type
  1085 ;;  data            4    4[BANK0 ] unsigned char [4]
  1086 ;;  blank           4    0[BANK0 ] unsigned char [4]
  1087 ;; Return value:  Size  Location     Type
  1088 ;;                  1    wreg      void 
  1089 ;; Registers used:
  1090 ;;		wreg, fsr1l, fsr1h, status,2, status,0, pclath, cstack
  1091 ;; Tracked objects:
  1092 ;;		On entry : B1F/0
  1093 ;;		On exit  : 0/0
  1094 ;;		Unchanged: 0/0
  1095 ;; Data sizes:     COMMON   BANK0   BANK1   BANK2   BANK3   BANK4
  1096 ;;      Params:         0       0       0       0       0       0
  1097 ;;      Locals:         0       8       0       0       0       0
  1098 ;;      Temps:          1       0       0       0       0       0
  1099 ;;      Totals:         1       8       0       0       0       0
  1100 ;;Total ram usage:        9 bytes
  1101 ;; Hardware stack levels required when called:    3
  1102 ;; This function calls:
  1103 ;;		_SYSTEM_Initialize
  1104 ;;		_bit_delay
  1105 ;;		_set_brigthness
  1106 ;;		_set_segments
  1107 ;; This function is called by:
  1108 ;;		Startup code after reset
  1109 ;; This function uses a non-reentrant model
  1110 ;;
  1111                           
  1112                           
  1113                           ;psect for function _main
  1114  073B                     _main:
  1115  073B                     l972:	
  1116                           ;incstack = 0
  1117                           ; Regs used in _main: [wreg+fsr1l+fsr1h+status,2+status,0+pclath+cstack]
  1118                           
  1119                           
  1120                           ;main.c: 11:     SYSTEM_Initialize();
  1121  073B  3186  26CC  3187   	fcall	_SYSTEM_Initialize
  1122  073E                     l974:
  1123                           
  1124                           ;main.c: 15:     uint8_t data[] = {0xff, 0xff, 0xff, 0xff};
  1125  073E  0020               	movlb	0	; select bank0
  1126  073F  082D               	movf	main@F2502+3,w
  1127  0740  00B5               	movwf	main@data+3
  1128  0741  082C               	movf	main@F2502+2,w
  1129  0742  00B4               	movwf	main@data+2
  1130  0743  082B               	movf	main@F2502+1,w
  1131  0744  00B3               	movwf	main@data+1
  1132  0745  082A               	movf	main@F2502,w
  1133  0746  00B2               	movwf	main@data
  1134  0747                     l976:
  1135                           
  1136                           ;main.c: 16:     uint8_t blank[] = {0x00, 0x00, 0x00, 0x00};
  1137  0747  3000               	movlw	0
  1138  0748  00B1               	movwf	main@blank+3
  1139  0749  3000               	movlw	0
  1140  074A  00B0               	movwf	main@blank+2
  1141  074B  3000               	movlw	0
  1142  074C  00AF               	movwf	main@blank+1
  1143  074D  3000               	movlw	0
  1144  074E  00AE               	movwf	main@blank
  1145  074F                     l68:	
  1146                           ;main.c: 19:     while (1)
  1147                           
  1148                           
  1149                           ;main.c: 20:     {;main.c: 21:         set_brigthness(0x0f, 1);
  1150  074F  01F0               	clrf	set_brigthness@on
  1151  0750  0AF0               	incf	set_brigthness@on,f
  1152  0751  300F               	movlw	15
  1153  0752  3187  2712  3187   	fcall	_set_brigthness
  1154  0755                     l978:
  1155                           
  1156                           ;main.c: 22:         set_segments(data, 4, 1);
  1157  0755  3004               	movlw	4
  1158  0756  00FC               	movwf	??_main
  1159  0757  087C               	movf	??_main,w
  1160  0758  00F7               	movwf	set_segments@length
  1161  0759  01F8               	clrf	set_segments@pos
  1162  075A  0AF8               	incf	set_segments@pos,f
  1163  075B  3032               	movlw	(low (main@data| 0))& (0+255)
  1164  075C  3187  2765  3187   	fcall	_set_segments
  1165  075F                     l980:
  1166                           
  1167                           ;main.c: 23:         bit_delay();
  1168  075F  3186  26D6  3187   	fcall	_bit_delay
  1169  0762  2F4F               	goto	l68
  1170  0763  3180  2803         	ljmp	start
  1171  0765                     __end_of_main:
  1172                           
  1173                           	psect	text1
  1174  0765                     __ptext1:	
  1175 ;; *************** function _set_segments *****************
  1176 ;; Defined at:
  1177 ;;		line 111 in file "i2c_pp.c"
  1178 ;; Parameters:    Size  Location     Type
  1179 ;;  segments        1    wreg     PTR const unsigned char 
  1180 ;;		 -> main@data(4), 
  1181 ;;  length          1    7[COMMON] unsigned char 
  1182 ;;  pos             1    8[COMMON] unsigned char 
  1183 ;; Auto vars:     Size  Location     Type
  1184 ;;  segments        1   10[COMMON] PTR const unsigned char 
  1185 ;;		 -> main@data(4), 
  1186 ;;  k               1   11[COMMON] unsigned char 
  1187 ;; Return value:  Size  Location     Type
  1188 ;;                  1    wreg      void 
  1189 ;; Registers used:
  1190 ;;		wreg, fsr1l, fsr1h, status,2, status,0, pclath, cstack
  1191 ;; Tracked objects:
  1192 ;;		On entry : 0/0
  1193 ;;		On exit  : 0/0
  1194 ;;		Unchanged: 0/0
  1195 ;; Data sizes:     COMMON   BANK0   BANK1   BANK2   BANK3   BANK4
  1196 ;;      Params:         2       0       0       0       0       0
  1197 ;;      Locals:         2       0       0       0       0       0
  1198 ;;      Temps:          1       0       0       0       0       0
  1199 ;;      Totals:         5       0       0       0       0       0
  1200 ;;Total ram usage:        5 bytes
  1201 ;; Hardware stack levels used:    1
  1202 ;; Hardware stack levels required when called:    2
  1203 ;; This function calls:
  1204 ;;		_start
  1205 ;;		_stop
  1206 ;;		_write_byte
  1207 ;; This function is called by:
  1208 ;;		_main
  1209 ;; This function uses a non-reentrant model
  1210 ;;
  1211                           
  1212                           
  1213                           ;psect for function _set_segments
  1214  0765                     _set_segments:
  1215                           
  1216                           ;incstack = 0
  1217                           ; Regs used in _set_segments: [wreg+fsr1l+fsr1h+status,2+status,0+pclath+cstack]
  1218                           ;set_segments@segments stored from wreg
  1219  0765  00FA               	movwf	set_segments@segments
  1220  0766                     l960:
  1221                           
  1222                           ;i2c_pp.c: 114:     start();
  1223  0766  3186  26F1  3187   	fcall	_start
  1224                           
  1225                           ;i2c_pp.c: 115:     write_byte(0x40);
  1226  0769  3040               	movlw	64
  1227  076A  3187  279F  3187   	fcall	_write_byte
  1228                           
  1229                           ;i2c_pp.c: 116:     stop();
  1230  076D  3187  2700  3187   	fcall	_stop
  1231                           
  1232                           ;i2c_pp.c: 119:     start();
  1233  0770  3186  26F1  3187   	fcall	_start
  1234                           
  1235                           ;i2c_pp.c: 120:     write_byte(0xC0 + (pos & 0x03));
  1236  0773  0878               	movf	set_segments@pos,w
  1237  0774  3903               	andlw	3
  1238  0775  3EC0               	addlw	192
  1239  0776  3187  279F  3187   	fcall	_write_byte
  1240  0779                     l962:
  1241                           
  1242                           ;i2c_pp.c: 123:     for(uint8_t k = 0; k < length; k++){
  1243  0779  01FB               	clrf	set_segments@k
  1244  077A  2F89               	goto	l968
  1245  077B                     l964:
  1246                           
  1247                           ;i2c_pp.c: 124:         write_byte(segments[k]);
  1248  077B  087B               	movf	set_segments@k,w
  1249  077C  077A               	addwf	set_segments@segments,w
  1250  077D  00F9               	movwf	??_set_segments
  1251  077E  0879               	movf	??_set_segments,w
  1252  077F  0086               	movwf	6
  1253  0780  0187               	clrf	7
  1254  0781  0801               	movf	1,w
  1255  0782  3187  279F  3187   	fcall	_write_byte
  1256  0785                     l966:
  1257                           
  1258                           ;i2c_pp.c: 125:     }
  1259  0785  3001               	movlw	1
  1260  0786  00F9               	movwf	??_set_segments
  1261  0787  0879               	movf	??_set_segments,w
  1262  0788  07FB               	addwf	set_segments@k,f
  1263  0789                     l968:
  1264  0789  0877               	movf	set_segments@length,w
  1265  078A  027B               	subwf	set_segments@k,w
  1266  078B  1C03               	skipc
  1267  078C  2F8E               	goto	u101
  1268  078D  2F8F               	goto	u100
  1269  078E                     u101:
  1270  078E  2F7B               	goto	l964
  1271  078F                     u100:
  1272  078F                     l970:
  1273                           
  1274                           ;i2c_pp.c: 127:     stop();
  1275  078F  3187  2700  3187   	fcall	_stop
  1276                           
  1277                           ;i2c_pp.c: 130:     start();
  1278  0792  3186  26F1  3187   	fcall	_start
  1279                           
  1280                           ;i2c_pp.c: 131:     write_byte(0x80 + (m_brightness & 0x0f));
  1281  0795  087D               	movf	_m_brightness,w
  1282  0796  390F               	andlw	15
  1283  0797  3E80               	addlw	128
  1284  0798  3187  279F  3187   	fcall	_write_byte
  1285                           
  1286                           ;i2c_pp.c: 132:     stop();
  1287  079B  3187  2700  3187   	fcall	_stop
  1288  079E                     l161:
  1289  079E  0008               	return
  1290  079F                     __end_of_set_segments:
  1291                           
  1292                           	psect	text2
  1293  079F                     __ptext2:	
  1294 ;; *************** function _write_byte *****************
  1295 ;; Defined at:
  1296 ;;		line 61 in file "i2c_pp.c"
  1297 ;; Parameters:    Size  Location     Type
  1298 ;;  b               1    wreg     unsigned char 
  1299 ;; Auto vars:     Size  Location     Type
  1300 ;;  b               1    3[COMMON] unsigned char 
  1301 ;;  i               1    6[COMMON] unsigned char 
  1302 ;;  data            1    5[COMMON] unsigned char 
  1303 ;;  ack             1    4[COMMON] unsigned char 
  1304 ;; Return value:  Size  Location     Type
  1305 ;;                  1    wreg      unsigned char 
  1306 ;; Registers used:
  1307 ;;		wreg, status,2, status,0, pclath, cstack
  1308 ;; Tracked objects:
  1309 ;;		On entry : 0/0
  1310 ;;		On exit  : 0/0
  1311 ;;		Unchanged: 0/0
  1312 ;; Data sizes:     COMMON   BANK0   BANK1   BANK2   BANK3   BANK4
  1313 ;;      Params:         0       0       0       0       0       0
  1314 ;;      Locals:         4       0       0       0       0       0
  1315 ;;      Temps:          1       0       0       0       0       0
  1316 ;;      Totals:         5       0       0       0       0       0
  1317 ;;Total ram usage:        5 bytes
  1318 ;; Hardware stack levels used:    1
  1319 ;; Hardware stack levels required when called:    1
  1320 ;; This function calls:
  1321 ;;		_bit_delay
  1322 ;; This function is called by:
  1323 ;;		_set_segments
  1324 ;; This function uses a non-reentrant model
  1325 ;;
  1326                           
  1327                           
  1328                           ;psect for function _write_byte
  1329  079F                     _write_byte:
  1330                           
  1331                           ;incstack = 0
  1332                           ; Regs used in _write_byte: [wreg+status,2+status,0+pclath+cstack]
  1333                           ;write_byte@b stored from wreg
  1334  079F  00F3               	movwf	write_byte@b
  1335  07A0                     l914:
  1336                           
  1337                           ;i2c_pp.c: 62:     uint8_t data = b;
  1338  07A0  0873               	movf	write_byte@b,w
  1339  07A1  00F2               	movwf	??_write_byte
  1340  07A2  0872               	movf	??_write_byte,w
  1341  07A3  00F5               	movwf	write_byte@data
  1342  07A4                     l916:
  1343                           
  1344                           ;i2c_pp.c: 64:     for(uint8_t i = 0; i < 8; i++){
  1345  07A4  01F6               	clrf	write_byte@i
  1346  07A5                     l127:	
  1347                           ;i2c_pp.c: 65:         do { TRISBbits.TRISB5 = 0; } while(0);
  1348                           
  1349  07A5  0021               	movlb	1	; select bank1
  1350  07A6  128D               	bcf	13,5	;volatile
  1351  07A7                     l129:	
  1352                           ;i2c_pp.c: 66:         do { LATBbits.LATB5 = 0; } while(0);
  1353                           
  1354  07A7  0022               	movlb	2	; select bank2
  1355  07A8  128D               	bcf	13,5	;volatile
  1356  07A9                     l922:
  1357                           
  1358                           ;i2c_pp.c: 67:         bit_delay();
  1359  07A9  3186  26D6  3187   	fcall	_bit_delay
  1360  07AC                     l924:
  1361                           
  1362                           ;i2c_pp.c: 69:         if(data & 0x01){
  1363  07AC  1C75               	btfss	write_byte@data,0
  1364  07AD  2FAF               	goto	u61
  1365  07AE  2FB0               	goto	u60
  1366  07AF                     u61:
  1367  07AF  2FB3               	goto	l135
  1368  07B0                     u60:
  1369  07B0                     l132:	
  1370                           ;i2c_pp.c: 70:             do { LATBbits.LATB2 = 1; } while(0);
  1371                           
  1372  07B0  0022               	movlb	2	; select bank2
  1373  07B1  150D               	bsf	13,2	;volatile
  1374  07B2  2FB5               	goto	l926
  1375  07B3                     l135:	
  1376                           ;i2c_pp.c: 72:             do { LATBbits.LATB2 = 0; } while(0);
  1377                           
  1378  07B3  0022               	movlb	2	; select bank2
  1379  07B4  110D               	bcf	13,2	;volatile
  1380  07B5                     l926:
  1381                           
  1382                           ;i2c_pp.c: 75:         bit_delay();
  1383  07B5  3186  26D6  3187   	fcall	_bit_delay
  1384  07B8                     l928:
  1385  07B8  0022               	movlb	2	; select bank2
  1386  07B9  168D               	bsf	13,5	;volatile
  1387  07BA                     l138:
  1388                           
  1389                           ;i2c_pp.c: 77:         bit_delay();
  1390  07BA  3186  26D6  3187   	fcall	_bit_delay
  1391  07BD                     l930:
  1392                           
  1393                           ;i2c_pp.c: 79:         data = data >> 1;
  1394  07BD  3675               	lsrf	write_byte@data,w
  1395  07BE  00F2               	movwf	??_write_byte
  1396  07BF  0872               	movf	??_write_byte,w
  1397  07C0  00F5               	movwf	write_byte@data
  1398  07C1                     l932:
  1399                           
  1400                           ;i2c_pp.c: 80:     }
  1401  07C1  3001               	movlw	1
  1402  07C2  00F2               	movwf	??_write_byte
  1403  07C3  0872               	movf	??_write_byte,w
  1404  07C4  07F6               	addwf	write_byte@i,f
  1405  07C5                     l934:
  1406  07C5  3008               	movlw	8
  1407  07C6  0276               	subwf	write_byte@i,w
  1408  07C7  1C03               	skipc
  1409  07C8  2FCA               	goto	u71
  1410  07C9  2FCB               	goto	u70
  1411  07CA                     u71:
  1412  07CA  2FA5               	goto	l127
  1413  07CB                     u70:
  1414  07CB                     l139:	
  1415                           ;i2c_pp.c: 83:     do { LATBbits.LATB5 = 0; } while(0);
  1416                           
  1417  07CB  0022               	movlb	2	; select bank2
  1418  07CC  128D               	bcf	13,5	;volatile
  1419  07CD                     l936:
  1420                           
  1421                           ;i2c_pp.c: 84:     bit_delay();
  1422  07CD  3186  26D6  3187   	fcall	_bit_delay
  1423  07D0                     l938:
  1424  07D0  0021               	movlb	1	; select bank1
  1425  07D1  150D               	bsf	13,2	;volatile
  1426  07D2                     l940:
  1427  07D2  0022               	movlb	2	; select bank2
  1428  07D3  168D               	bsf	13,5	;volatile
  1429  07D4                     l144:
  1430                           
  1431                           ;i2c_pp.c: 89:     bit_delay();
  1432  07D4  3186  26D6  3187   	fcall	_bit_delay
  1433  07D7                     l942:
  1434                           
  1435                           ;i2c_pp.c: 91:     uint8_t ack = PORTBbits.RB2;
  1436  07D7  3000               	movlw	0
  1437  07D8  0020               	movlb	0	; select bank0
  1438  07D9  190D               	btfsc	13,2	;volatile
  1439  07DA  3001               	movlw	1
  1440  07DB  00F4               	movwf	write_byte@ack
  1441  07DC                     l944:
  1442                           
  1443                           ;i2c_pp.c: 92:     if(ack == 0){
  1444  07DC  0874               	movf	write_byte@ack,w
  1445  07DD  1D03               	btfss	3,2
  1446  07DE  2FE0               	goto	u81
  1447  07DF  2FE1               	goto	u80
  1448  07E0                     u81:
  1449  07E0  2FE3               	goto	l946
  1450  07E1                     u80:
  1451  07E1                     l146:	
  1452                           ;i2c_pp.c: 93:         do { TRISBbits.TRISB2 = 0; } while(0);
  1453                           
  1454  07E1  0021               	movlb	1	; select bank1
  1455  07E2  110D               	bcf	13,2	;volatile
  1456  07E3                     l946:
  1457                           
  1458                           ;i2c_pp.c: 96:     bit_delay();
  1459  07E3  3186  26D6  3187   	fcall	_bit_delay
  1460  07E6                     l948:
  1461  07E6  0022               	movlb	2	; select bank2
  1462  07E7  128D               	bcf	13,5	;volatile
  1463  07E8                     l149:
  1464                           
  1465                           ;i2c_pp.c: 98:     bit_delay();
  1466  07E8  3186  26D6  3187   	fcall	_bit_delay
  1467  07EB                     l150:
  1468  07EB  0008               	return
  1469  07EC                     __end_of_write_byte:
  1470                           
  1471                           	psect	text3
  1472  0700                     __ptext3:	
  1473 ;; *************** function _stop *****************
  1474 ;; Defined at:
  1475 ;;		line 46 in file "i2c_pp.c"
  1476 ;; Parameters:    Size  Location     Type
  1477 ;;		None
  1478 ;; Auto vars:     Size  Location     Type
  1479 ;;		None
  1480 ;; Return value:  Size  Location     Type
  1481 ;;                  1    wreg      void 
  1482 ;; Registers used:
  1483 ;;		wreg, status,2, status,0, pclath, cstack
  1484 ;; Tracked objects:
  1485 ;;		On entry : 0/0
  1486 ;;		On exit  : 0/0
  1487 ;;		Unchanged: 0/0
  1488 ;; Data sizes:     COMMON   BANK0   BANK1   BANK2   BANK3   BANK4
  1489 ;;      Params:         0       0       0       0       0       0
  1490 ;;      Locals:         0       0       0       0       0       0
  1491 ;;      Temps:          0       0       0       0       0       0
  1492 ;;      Totals:         0       0       0       0       0       0
  1493 ;;Total ram usage:        0 bytes
  1494 ;; Hardware stack levels used:    1
  1495 ;; Hardware stack levels required when called:    1
  1496 ;; This function calls:
  1497 ;;		_bit_delay
  1498 ;; This function is called by:
  1499 ;;		_set_segments
  1500 ;; This function uses a non-reentrant model
  1501 ;;
  1502                           
  1503                           
  1504                           ;psect for function _stop
  1505  0700                     _stop:
  1506  0700                     l108:	
  1507                           ;incstack = 0
  1508                           ; Regs used in _stop: [wreg+status,2+status,0+pclath+cstack]
  1509                           ;i2c_pp.c: 47:     do { TRISBbits.TRISB2 = 0; } while(0);
  1510                           
  1511  0700  0021               	movlb	1	; select bank1
  1512  0701  110D               	bcf	13,2	;volatile
  1513  0702                     l110:	
  1514                           ;i2c_pp.c: 48:     do { TRISBbits.TRISB5 = 0; } while(0);
  1515                           
  1516  0702  128D               	bcf	13,5	;volatile
  1517  0703                     l112:	
  1518                           ;i2c_pp.c: 50:     do { LATBbits.LATB5 = 0; } while(0);
  1519                           
  1520  0703  0022               	movlb	2	; select bank2
  1521  0704  128D               	bcf	13,5	;volatile
  1522  0705                     l114:	
  1523                           ;i2c_pp.c: 51:     do { LATBbits.LATB2 = 0; } while(0);
  1524                           
  1525  0705  110D               	bcf	13,2	;volatile
  1526  0706                     l906:
  1527                           
  1528                           ;i2c_pp.c: 52:     bit_delay();
  1529  0706  3186  26D6  3187   	fcall	_bit_delay
  1530  0709                     l908:
  1531  0709  0022               	movlb	2	; select bank2
  1532  070A  168D               	bsf	13,5	;volatile
  1533  070B                     l910:
  1534  070B  150D               	bsf	13,2	;volatile
  1535  070C                     l119:
  1536                           
  1537                           ;i2c_pp.c: 56:     bit_delay();
  1538  070C  3186  26D6  3187   	fcall	_bit_delay
  1539  070F                     l912:
  1540  070F  0022               	movlb	2	; select bank2
  1541  0710  110C               	bcf	12,2	;volatile
  1542  0711                     l122:
  1543  0711  0008               	return
  1544  0712                     __end_of_stop:
  1545                           
  1546                           	psect	text4
  1547  06F1                     __ptext4:	
  1548 ;; *************** function _start *****************
  1549 ;; Defined at:
  1550 ;;		line 31 in file "i2c_pp.c"
  1551 ;; Parameters:    Size  Location     Type
  1552 ;;		None
  1553 ;; Auto vars:     Size  Location     Type
  1554 ;;		None
  1555 ;; Return value:  Size  Location     Type
  1556 ;;                  1    wreg      void 
  1557 ;; Registers used:
  1558 ;;		wreg, status,2, status,0, pclath, cstack
  1559 ;; Tracked objects:
  1560 ;;		On entry : 0/0
  1561 ;;		On exit  : 0/0
  1562 ;;		Unchanged: 0/0
  1563 ;; Data sizes:     COMMON   BANK0   BANK1   BANK2   BANK3   BANK4
  1564 ;;      Params:         0       0       0       0       0       0
  1565 ;;      Locals:         0       0       0       0       0       0
  1566 ;;      Temps:          0       0       0       0       0       0
  1567 ;;      Totals:         0       0       0       0       0       0
  1568 ;;Total ram usage:        0 bytes
  1569 ;; Hardware stack levels used:    1
  1570 ;; Hardware stack levels required when called:    1
  1571 ;; This function calls:
  1572 ;;		_bit_delay
  1573 ;; This function is called by:
  1574 ;;		_set_segments
  1575 ;; This function uses a non-reentrant model
  1576 ;;
  1577                           
  1578                           
  1579                           ;psect for function _start
  1580  06F1                     _start:
  1581  06F1                     l91:	
  1582                           ;incstack = 0
  1583                           ; Regs used in _start: [wreg+status,2+status,0+pclath+cstack]
  1584                           ;i2c_pp.c: 32:     do { LATAbits.LATA2 = 1; } while(0);
  1585                           
  1586  06F1  0022               	movlb	2	; select bank2
  1587  06F2  150C               	bsf	12,2	;volatile
  1588  06F3                     l93:	
  1589                           ;i2c_pp.c: 34:     do { TRISBbits.TRISB2 = 0; } while(0);
  1590                           
  1591  06F3  0021               	movlb	1	; select bank1
  1592  06F4  110D               	bcf	13,2	;volatile
  1593  06F5                     l95:	
  1594                           ;i2c_pp.c: 35:     do { TRISBbits.TRISB5 = 0; } while(0);
  1595                           
  1596  06F5  128D               	bcf	13,5	;volatile
  1597  06F6                     l97:	
  1598                           ;i2c_pp.c: 37:     do { LATBbits.LATB2 = 1; } while(0);
  1599                           
  1600  06F6  0022               	movlb	2	; select bank2
  1601  06F7  150D               	bsf	13,2	;volatile
  1602  06F8                     l99:	
  1603                           ;i2c_pp.c: 38:     do { LATBbits.LATB5 = 1; } while(0);
  1604                           
  1605  06F8  168D               	bsf	13,5	;volatile
  1606  06F9                     l900:
  1607                           
  1608                           ;i2c_pp.c: 40:     bit_delay();
  1609  06F9  3186  26D6  3186   	fcall	_bit_delay
  1610  06FC                     l902:
  1611  06FC  0022               	movlb	2	; select bank2
  1612  06FD  110D               	bcf	13,2	;volatile
  1613  06FE                     l904:
  1614  06FE  128D               	bcf	13,5	;volatile
  1615  06FF                     l105:
  1616  06FF  0008               	return
  1617  0700                     __end_of_start:
  1618                           
  1619                           	psect	text5
  1620  06D6                     __ptext5:	
  1621 ;; *************** function _bit_delay *****************
  1622 ;; Defined at:
  1623 ;;		line 27 in file "i2c_pp.c"
  1624 ;; Parameters:    Size  Location     Type
  1625 ;;		None
  1626 ;; Auto vars:     Size  Location     Type
  1627 ;;		None
  1628 ;; Return value:  Size  Location     Type
  1629 ;;                  1    wreg      void 
  1630 ;; Registers used:
  1631 ;;		wreg
  1632 ;; Tracked objects:
  1633 ;;		On entry : 0/0
  1634 ;;		On exit  : 0/0
  1635 ;;		Unchanged: 0/0
  1636 ;; Data sizes:     COMMON   BANK0   BANK1   BANK2   BANK3   BANK4
  1637 ;;      Params:         0       0       0       0       0       0
  1638 ;;      Locals:         0       0       0       0       0       0
  1639 ;;      Temps:          2       0       0       0       0       0
  1640 ;;      Totals:         2       0       0       0       0       0
  1641 ;;Total ram usage:        2 bytes
  1642 ;; Hardware stack levels used:    1
  1643 ;; This function calls:
  1644 ;;		Nothing
  1645 ;; This function is called by:
  1646 ;;		_main
  1647 ;;		_start
  1648 ;;		_stop
  1649 ;;		_write_byte
  1650 ;; This function uses a non-reentrant model
  1651 ;;
  1652                           
  1653                           
  1654                           ;psect for function _bit_delay
  1655  06D6                     _bit_delay:
  1656  06D6                     l878:	
  1657                           ;incstack = 0
  1658                           ; Regs used in _bit_delay: [wreg]
  1659                           
  1660                           
  1661                           ;i2c_pp.c: 28:     _delay((unsigned long)((2000)*(16000000/4000.0)));
  1662  06D6  3029               	movlw	41
  1663  06D7  00F1               	movwf	??_bit_delay+1
  1664  06D8  3096               	movlw	150
  1665  06D9  00F0               	movwf	??_bit_delay
  1666  06DA  307F               	movlw	127
  1667  06DB                     u117:
  1668  06DB  0B89               	decfsz	9,f
  1669  06DC  2EDB               	goto	u117
  1670  06DD  0BF0               	decfsz	??_bit_delay,f
  1671  06DE  2EDB               	goto	u117
  1672  06DF  0BF1               	decfsz	??_bit_delay+1,f
  1673  06E0  2EDB               	goto	u117
  1674  06E1  0000               	nop
  1675  06E2                     l88:
  1676  06E2  0008               	return
  1677  06E3                     __end_of_bit_delay:
  1678                           
  1679                           	psect	text6
  1680  0712                     __ptext6:	
  1681 ;; *************** function _set_brigthness *****************
  1682 ;; Defined at:
  1683 ;;		line 103 in file "i2c_pp.c"
  1684 ;; Parameters:    Size  Location     Type
  1685 ;;  brightness      1    wreg     unsigned char 
  1686 ;;  on              1    0[COMMON] unsigned char 
  1687 ;; Auto vars:     Size  Location     Type
  1688 ;;  brightness      1    2[COMMON] unsigned char 
  1689 ;; Return value:  Size  Location     Type
  1690 ;;                  1    wreg      void 
  1691 ;; Registers used:
  1692 ;;		wreg, status,2, status,0
  1693 ;; Tracked objects:
  1694 ;;		On entry : 0/0
  1695 ;;		On exit  : 0/0
  1696 ;;		Unchanged: 0/0
  1697 ;; Data sizes:     COMMON   BANK0   BANK1   BANK2   BANK3   BANK4
  1698 ;;      Params:         1       0       0       0       0       0
  1699 ;;      Locals:         1       0       0       0       0       0
  1700 ;;      Temps:          1       0       0       0       0       0
  1701 ;;      Totals:         3       0       0       0       0       0
  1702 ;;Total ram usage:        3 bytes
  1703 ;; Hardware stack levels used:    1
  1704 ;; This function calls:
  1705 ;;		Nothing
  1706 ;; This function is called by:
  1707 ;;		_main
  1708 ;; This function uses a non-reentrant model
  1709 ;;
  1710                           
  1711                           
  1712                           ;psect for function _set_brigthness
  1713  0712                     _set_brigthness:
  1714                           
  1715                           ;incstack = 0
  1716                           ; Regs used in _set_brigthness: [wreg+status,2+status,0]
  1717                           ;set_brigthness@brightness stored from wreg
  1718  0712  00F2               	movwf	set_brigthness@brightness
  1719  0713                     l954:
  1720                           
  1721                           ;i2c_pp.c: 104:     if(on == 1){
  1722  0713  0370               	decf	set_brigthness@on,w
  1723  0714  1D03               	btfss	3,2
  1724  0715  2F17               	goto	u91
  1725  0716  2F18               	goto	u90
  1726  0717                     u91:
  1727  0717  2F1F               	goto	l958
  1728  0718                     u90:
  1729  0718                     l956:
  1730                           
  1731                           ;i2c_pp.c: 105:         m_brightness = (brightness & 0x7 | 0x08);
  1732  0718  0872               	movf	set_brigthness@brightness,w
  1733  0719  3907               	andlw	7
  1734  071A  3808               	iorlw	8
  1735  071B  00F1               	movwf	??_set_brigthness
  1736  071C  0871               	movf	??_set_brigthness,w
  1737  071D  00FD               	movwf	_m_brightness
  1738                           
  1739                           ;i2c_pp.c: 106:     }else{
  1740  071E  2F24               	goto	l155
  1741  071F                     l958:
  1742                           
  1743                           ;i2c_pp.c: 107:         m_brightness = (brightness & 0x7 | 0x00);
  1744  071F  0872               	movf	set_brigthness@brightness,w
  1745  0720  3907               	andlw	7
  1746  0721  00F1               	movwf	??_set_brigthness
  1747  0722  0871               	movf	??_set_brigthness,w
  1748  0723  00FD               	movwf	_m_brightness
  1749  0724                     l155:
  1750  0724  0008               	return
  1751  0725                     __end_of_set_brigthness:
  1752                           
  1753                           	psect	text7
  1754  06CC                     __ptext7:	
  1755 ;; *************** function _SYSTEM_Initialize *****************
  1756 ;; Defined at:
  1757 ;;		line 50 in file "mcc_generated_files/mcc.c"
  1758 ;; Parameters:    Size  Location     Type
  1759 ;;		None
  1760 ;; Auto vars:     Size  Location     Type
  1761 ;;		None
  1762 ;; Return value:  Size  Location     Type
  1763 ;;                  1    wreg      void 
  1764 ;; Registers used:
  1765 ;;		wreg, status,2, status,0, pclath, cstack
  1766 ;; Tracked objects:
  1767 ;;		On entry : 0/0
  1768 ;;		On exit  : 0/0
  1769 ;;		Unchanged: 0/0
  1770 ;; Data sizes:     COMMON   BANK0   BANK1   BANK2   BANK3   BANK4
  1771 ;;      Params:         0       0       0       0       0       0
  1772 ;;      Locals:         0       0       0       0       0       0
  1773 ;;      Temps:          0       0       0       0       0       0
  1774 ;;      Totals:         0       0       0       0       0       0
  1775 ;;Total ram usage:        0 bytes
  1776 ;; Hardware stack levels used:    1
  1777 ;; Hardware stack levels required when called:    1
  1778 ;; This function calls:
  1779 ;;		_OSCILLATOR_Initialize
  1780 ;;		_PIN_MANAGER_Initialize
  1781 ;;		_WDT_Initialize
  1782 ;; This function is called by:
  1783 ;;		_main
  1784 ;; This function uses a non-reentrant model
  1785 ;;
  1786                           
  1787                           
  1788                           ;psect for function _SYSTEM_Initialize
  1789  06CC                     _SYSTEM_Initialize:
  1790  06CC                     l952:	
  1791                           ;incstack = 0
  1792                           ; Regs used in _SYSTEM_Initialize: [wreg+status,2+status,0+pclath+cstack]
  1793                           
  1794                           
  1795                           ;mcc_generated_files/mcc.c: 53:     PIN_MANAGER_Initialize();
  1796  06CC  3187  2725  3186   	fcall	_PIN_MANAGER_Initialize
  1797                           
  1798                           ;mcc_generated_files/mcc.c: 54:     OSCILLATOR_Initialize();
  1799  06CF  3186  26C5  3186   	fcall	_OSCILLATOR_Initialize
  1800                           
  1801                           ;mcc_generated_files/mcc.c: 55:     WDT_Initialize();
  1802  06D2  3186  26BB  3186   	fcall	_WDT_Initialize
  1803  06D5                     l17:
  1804  06D5  0008               	return
  1805  06D6                     __end_of_SYSTEM_Initialize:
  1806                           
  1807                           	psect	text8
  1808  06BB                     __ptext8:	
  1809 ;; *************** function _WDT_Initialize *****************
  1810 ;; Defined at:
  1811 ;;		line 68 in file "mcc_generated_files/mcc.c"
  1812 ;; Parameters:    Size  Location     Type
  1813 ;;		None
  1814 ;; Auto vars:     Size  Location     Type
  1815 ;;		None
  1816 ;; Return value:  Size  Location     Type
  1817 ;;                  1    wreg      void 
  1818 ;; Registers used:
  1819 ;;		wreg
  1820 ;; Tracked objects:
  1821 ;;		On entry : 0/0
  1822 ;;		On exit  : 0/0
  1823 ;;		Unchanged: 0/0
  1824 ;; Data sizes:     COMMON   BANK0   BANK1   BANK2   BANK3   BANK4
  1825 ;;      Params:         0       0       0       0       0       0
  1826 ;;      Locals:         0       0       0       0       0       0
  1827 ;;      Temps:          0       0       0       0       0       0
  1828 ;;      Totals:         0       0       0       0       0       0
  1829 ;;Total ram usage:        0 bytes
  1830 ;; Hardware stack levels used:    1
  1831 ;; This function calls:
  1832 ;;		Nothing
  1833 ;; This function is called by:
  1834 ;;		_SYSTEM_Initialize
  1835 ;; This function uses a non-reentrant model
  1836 ;;
  1837                           
  1838                           
  1839                           ;psect for function _WDT_Initialize
  1840  06BB                     _WDT_Initialize:
  1841  06BB                     l898:	
  1842                           ;incstack = 0
  1843                           ; Regs used in _WDT_Initialize: [wreg]
  1844                           
  1845                           
  1846                           ;mcc_generated_files/mcc.c: 71:     WDTCON = 0x16;
  1847  06BB  3016               	movlw	22
  1848  06BC  0021               	movlb	1	; select bank1
  1849  06BD  0097               	movwf	23	;volatile
  1850  06BE                     l23:
  1851  06BE  0008               	return
  1852  06BF                     __end_of_WDT_Initialize:
  1853                           
  1854                           	psect	text9
  1855  0725                     __ptext9:	
  1856 ;; *************** function _PIN_MANAGER_Initialize *****************
  1857 ;; Defined at:
  1858 ;;		line 55 in file "mcc_generated_files/pin_manager.c"
  1859 ;; Parameters:    Size  Location     Type
  1860 ;;		None
  1861 ;; Auto vars:     Size  Location     Type
  1862 ;;		None
  1863 ;; Return value:  Size  Location     Type
  1864 ;;                  1    wreg      void 
  1865 ;; Registers used:
  1866 ;;		wreg, status,2
  1867 ;; Tracked objects:
  1868 ;;		On entry : 0/0
  1869 ;;		On exit  : 0/0
  1870 ;;		Unchanged: 0/0
  1871 ;; Data sizes:     COMMON   BANK0   BANK1   BANK2   BANK3   BANK4
  1872 ;;      Params:         0       0       0       0       0       0
  1873 ;;      Locals:         0       0       0       0       0       0
  1874 ;;      Temps:          0       0       0       0       0       0
  1875 ;;      Totals:         0       0       0       0       0       0
  1876 ;;Total ram usage:        0 bytes
  1877 ;; Hardware stack levels used:    1
  1878 ;; This function calls:
  1879 ;;		Nothing
  1880 ;; This function is called by:
  1881 ;;		_SYSTEM_Initialize
  1882 ;; This function uses a non-reentrant model
  1883 ;;
  1884                           
  1885                           
  1886                           ;psect for function _PIN_MANAGER_Initialize
  1887  0725                     _PIN_MANAGER_Initialize:
  1888  0725                     l880:	
  1889                           ;incstack = 0
  1890                           ; Regs used in _PIN_MANAGER_Initialize: [wreg+status,2]
  1891                           
  1892                           
  1893                           ;mcc_generated_files/pin_manager.c: 60:     LATA = 0x00;
  1894  0725  0022               	movlb	2	; select bank2
  1895  0726  018C               	clrf	12	;volatile
  1896                           
  1897                           ;mcc_generated_files/pin_manager.c: 61:     LATB = 0x00;
  1898  0727  018D               	clrf	13	;volatile
  1899  0728                     l882:
  1900                           
  1901                           ;mcc_generated_files/pin_manager.c: 66:     TRISA = 0xFB;
  1902  0728  30FB               	movlw	251
  1903  0729  0021               	movlb	1	; select bank1
  1904  072A  008C               	movwf	12	;volatile
  1905  072B                     l884:
  1906                           
  1907                           ;mcc_generated_files/pin_manager.c: 67:     TRISB = 0xFF;
  1908  072B  30FF               	movlw	255
  1909  072C  008D               	movwf	13	;volatile
  1910  072D                     l886:
  1911                           
  1912                           ;mcc_generated_files/pin_manager.c: 72:     ANSELB = 0xDA;
  1913  072D  30DA               	movlw	218
  1914  072E  0023               	movlb	3	; select bank3
  1915  072F  008D               	movwf	13	;volatile
  1916  0730                     l888:
  1917                           
  1918                           ;mcc_generated_files/pin_manager.c: 73:     ANSELA = 0x1B;
  1919  0730  301B               	movlw	27
  1920  0731  008C               	movwf	12	;volatile
  1921                           
  1922                           ;mcc_generated_files/pin_manager.c: 78:     WPUB = 0x00;
  1923  0732  0024               	movlb	4	; select bank4
  1924  0733  018D               	clrf	13	;volatile
  1925                           
  1926                           ;mcc_generated_files/pin_manager.c: 79:     WPUA = 0x00;
  1927  0734  018C               	clrf	12	;volatile
  1928  0735                     l890:
  1929                           
  1930                           ;mcc_generated_files/pin_manager.c: 80:     OPTION_REGbits.nWPUEN = 1;
  1931  0735  0021               	movlb	1	; select bank1
  1932  0736  1795               	bsf	21,7	;volatile
  1933                           
  1934                           ;mcc_generated_files/pin_manager.c: 86:     APFCON0 = 0x00;
  1935  0737  0022               	movlb	2	; select bank2
  1936  0738  019D               	clrf	29	;volatile
  1937                           
  1938                           ;mcc_generated_files/pin_manager.c: 87:     APFCON1 = 0x00;
  1939  0739  019E               	clrf	30	;volatile
  1940  073A                     l48:
  1941  073A  0008               	return
  1942  073B                     __end_of_PIN_MANAGER_Initialize:
  1943                           
  1944                           	psect	text10
  1945  06C5                     __ptext10:	
  1946 ;; *************** function _OSCILLATOR_Initialize *****************
  1947 ;; Defined at:
  1948 ;;		line 58 in file "mcc_generated_files/mcc.c"
  1949 ;; Parameters:    Size  Location     Type
  1950 ;;		None
  1951 ;; Auto vars:     Size  Location     Type
  1952 ;;		None
  1953 ;; Return value:  Size  Location     Type
  1954 ;;                  1    wreg      void 
  1955 ;; Registers used:
  1956 ;;		wreg, status,2
  1957 ;; Tracked objects:
  1958 ;;		On entry : 0/0
  1959 ;;		On exit  : 0/0
  1960 ;;		Unchanged: 0/0
  1961 ;; Data sizes:     COMMON   BANK0   BANK1   BANK2   BANK3   BANK4
  1962 ;;      Params:         0       0       0       0       0       0
  1963 ;;      Locals:         0       0       0       0       0       0
  1964 ;;      Temps:          0       0       0       0       0       0
  1965 ;;      Totals:         0       0       0       0       0       0
  1966 ;;Total ram usage:        0 bytes
  1967 ;; Hardware stack levels used:    1
  1968 ;; This function calls:
  1969 ;;		Nothing
  1970 ;; This function is called by:
  1971 ;;		_SYSTEM_Initialize
  1972 ;; This function uses a non-reentrant model
  1973 ;;
  1974                           
  1975                           
  1976                           ;psect for function _OSCILLATOR_Initialize
  1977  06C5                     _OSCILLATOR_Initialize:
  1978  06C5                     l892:	
  1979                           ;incstack = 0
  1980                           ; Regs used in _OSCILLATOR_Initialize: [wreg+status,2]
  1981                           
  1982                           
  1983                           ;mcc_generated_files/mcc.c: 61:     OSCCON = 0x78;
  1984  06C5  3078               	movlw	120
  1985  06C6  0021               	movlb	1	; select bank1
  1986  06C7  0099               	movwf	25	;volatile
  1987  06C8                     l894:
  1988                           
  1989                           ;mcc_generated_files/mcc.c: 63:     OSCTUNE = 0x00;
  1990  06C8  0198               	clrf	24	;volatile
  1991  06C9                     l896:
  1992                           
  1993                           ;mcc_generated_files/mcc.c: 65:     BORCON = 0x00;
  1994  06C9  0022               	movlb	2	; select bank2
  1995  06CA  0196               	clrf	22	;volatile
  1996  06CB                     l20:
  1997  06CB  0008               	return
  1998  06CC                     __end_of_OSCILLATOR_Initialize:
  1999  007E                     btemp	set	126	;btemp
  2000  007E                     wtemp0	set	126
  2001                           
  2002                           	psect	config
  2003                           
  2004                           ;Config register CONFIG1 @ 0x8007
  2005                           ;	Oscillator Selection
  2006                           ;	FOSC = INTOSC, INTOSC oscillator: I/O function on CLKIN pin
  2007                           ;	Watchdog Timer Enable
  2008                           ;	WDTE = OFF, WDT disabled
  2009                           ;	Power-up Timer Enable
  2010                           ;	PWRTE = OFF, PWRT disabled
  2011                           ;	MCLR Pin Function Select
  2012                           ;	MCLRE = ON, MCLR/VPP pin function is MCLR
  2013                           ;	Flash Program Memory Code Protection
  2014                           ;	CP = OFF, Program memory code protection is disabled
  2015                           ;	Data Memory Code Protection
  2016                           ;	CPD = OFF, Data memory code protection is disabled
  2017                           ;	Brown-out Reset Enable
  2018                           ;	BOREN = ON, Brown-out Reset enabled
  2019                           ;	Clock Out Enable
  2020                           ;	CLKOUTEN = OFF, CLKOUT function is disabled. I/O or oscillator function on the CLKOUT 
      +                          pin
  2021                           ;	Internal/External Switchover
  2022                           ;	IESO = ON, Internal/External Switchover mode is enabled
  2023                           ;	Fail-Safe Clock Monitor Enable
  2024                           ;	FCMEN = ON, Fail-Safe Clock Monitor is enabled
  2025  8007                     	org	32775
  2026  8007  3FE4               	dw	16356
  2027                           
  2028                           ;Config register CONFIG2 @ 0x8008
  2029                           ;	Flash Memory Self-Write Protection
  2030                           ;	WRT = OFF, Write protection off
  2031                           ;	PLL Enable
  2032                           ;	PLLEN = OFF, 4x PLL disabled
  2033                           ;	Stack Overflow/Underflow Reset Enable
  2034                           ;	STVREN = ON, Stack Overflow or Underflow will cause a Reset
  2035                           ;	Brown-out Reset Voltage Selection
  2036                           ;	BORV = LO, Brown-out Reset Voltage (Vbor), low trip point selected.
  2037                           ;	Low-Voltage Programming Enable
  2038                           ;	LVP = ON, Low-voltage programming enabled
  2039  8008                     	org	32776
  2040  8008  3EFF               	dw	16127

Data Sizes:
    Strings     0
    Constant    0
    Data        14
    BSS         5
    Persistent  32
    Stack       0

Auto Spaces:
    Space          Size  Autos    Used
    COMMON           14     13      14
    BANK0            80      8      26
    BANK1            80      0       0
    BANK2            80      0       0
    BANK3            80      0       0
    BANK4            32      0       0

Pointer List with Targets:

    set_segments@segments	PTR const unsigned char  size(1) Largest target is 4
		 -> main@data(BANK0[4]), 


Critical Paths under _main in COMMON

    _main->_set_segments
    _set_segments->_write_byte
    _write_byte->_bit_delay
    _stop->_bit_delay
    _start->_bit_delay

Critical Paths under _main in BANK0

    None.

Critical Paths under _main in BANK1

    None.

Critical Paths under _main in BANK2

    None.

Critical Paths under _main in BANK3

    None.

Critical Paths under _main in BANK4

    None.

Call Graph Tables:

 ---------------------------------------------------------------------------------
 (Depth) Function   	        Calls       Base Space   Used Autos Params    Refs
 ---------------------------------------------------------------------------------
 (0) _main                                                 9     9      0     607
                                             12 COMMON     1     1      0
                                              0 BANK0      8     8      0
                  _SYSTEM_Initialize
                          _bit_delay
                     _set_brigthness
                       _set_segments
 ---------------------------------------------------------------------------------
 (1) _set_segments                                         5     3      2     440
                                              7 COMMON     5     3      2
                              _start
                               _stop
                         _write_byte
 ---------------------------------------------------------------------------------
 (2) _write_byte                                           5     5      0     143
                                              2 COMMON     5     5      0
                          _bit_delay
 ---------------------------------------------------------------------------------
 (2) _stop                                                 0     0      0       0
                          _bit_delay
 ---------------------------------------------------------------------------------
 (2) _start                                                0     0      0       0
                          _bit_delay
 ---------------------------------------------------------------------------------
 (3) _bit_delay                                            2     2      0       0
                                              0 COMMON     2     2      0
 ---------------------------------------------------------------------------------
 (1) _set_brigthness                                       3     2      1     142
                                              0 COMMON     3     2      1
 ---------------------------------------------------------------------------------
 (1) _SYSTEM_Initialize                                    0     0      0       0
              _OSCILLATOR_Initialize
             _PIN_MANAGER_Initialize
                     _WDT_Initialize
 ---------------------------------------------------------------------------------
 (2) _WDT_Initialize                                       0     0      0       0
 ---------------------------------------------------------------------------------
 (2) _PIN_MANAGER_Initialize                               0     0      0       0
 ---------------------------------------------------------------------------------
 (2) _OSCILLATOR_Initialize                                0     0      0       0
 ---------------------------------------------------------------------------------
 Estimated maximum stack depth 3
 ---------------------------------------------------------------------------------

 Call Graph Graphs:

 _main (ROOT)
   _SYSTEM_Initialize
     _OSCILLATOR_Initialize
     _PIN_MANAGER_Initialize
     _WDT_Initialize
   _bit_delay
   _set_brigthness
   _set_segments
     _start
       _bit_delay
     _stop
       _bit_delay
     _write_byte
       _bit_delay

 Address spaces:
Name               Size   Autos  Total    Cost      Usage
BIGRAM             160      0       0       0        0.0%
EEDATA             100      0       0       0        0.0%
NULL                 0      0       0       0        0.0%
CODE                 0      0       0       0        0.0%
BITCOMMON            E      0       0       1        0.0%
BITSFR0              0      0       0       1        0.0%
SFR0                 0      0       0       1        0.0%
COMMON               E      D       E       2      100.0%
BITSFR1              0      0       0       2        0.0%
SFR1                 0      0       0       2        0.0%
BITSFR2              0      0       0       3        0.0%
SFR2                 0      0       0       3        0.0%
STACK                0      0       0       3        0.0%
BITSFR3              0      0       0       4        0.0%
SFR3                 0      0       0       4        0.0%
ABS                  0      0      28       4        0.0%
BITBANK0            50      0       0       5        0.0%
BITSFR4              0      0       0       5        0.0%
SFR4                 0      0       0       5        0.0%
BANK0               50      8      1A       6       32.5%
BITSFR5              0      0       0       6        0.0%
SFR5                 0      0       0       6        0.0%
BITBANK1            50      0       0       7        0.0%
BITSFR6              0      0       0       7        0.0%
SFR6                 0      0       0       7        0.0%
BANK1               50      0       0       8        0.0%
BITSFR7              0      0       0       8        0.0%
SFR7                 0      0       0       8        0.0%
BITBANK2            50      0       0       9        0.0%
BITSFR8              0      0       0       9        0.0%
SFR8                 0      0       0       9        0.0%
BANK2               50      0       0      10        0.0%
BITSFR9              0      0       0      10        0.0%
SFR9                 0      0       0      10        0.0%
BITBANK3            50      0       0      11        0.0%
BITSFR10             0      0       0      11        0.0%
SFR10                0      0       0      11        0.0%
BANK3               50      0       0      12        0.0%
BITSFR11             0      0       0      12        0.0%
SFR11                0      0       0      12        0.0%
BITBANK4            20      0       0      13        0.0%
BITSFR12             0      0       0      13        0.0%
SFR12                0      0       0      13        0.0%
BANK4               20      0       0      14        0.0%
BITSFR13             0      0       0      14        0.0%
SFR13                0      0       0      14        0.0%
BITSFR14             0      0       0      15        0.0%
SFR14                0      0       0      15        0.0%
DATA                 0      0      28      15        0.0%
BITSFR15             0      0       0      16        0.0%
SFR15                0      0       0      16        0.0%
BITSFR16             0      0       0      17        0.0%
SFR16                0      0       0      17        0.0%
BITSFR17             0      0       0      18        0.0%
SFR17                0      0       0      18        0.0%
BITSFR18             0      0       0      19        0.0%
SFR18                0      0       0      19        0.0%
BITSFR19             0      0       0      20        0.0%
SFR19                0      0       0      20        0.0%
BITSFR20             0      0       0      21        0.0%
SFR20                0      0       0      21        0.0%
BITSFR21             0      0       0      22        0.0%
SFR21                0      0       0      22        0.0%
BITSFR22             0      0       0      23        0.0%
SFR22                0      0       0      23        0.0%
BITSFR23             0      0       0      24        0.0%
SFR23                0      0       0      24        0.0%
BITSFR24             0      0       0      25        0.0%
SFR24                0      0       0      25        0.0%
BITSFR25             0      0       0      26        0.0%
SFR25                0      0       0      26        0.0%
BITSFR26             0      0       0      27        0.0%
SFR26                0      0       0      27        0.0%
BITSFR27             0      0       0      28        0.0%
SFR27                0      0       0      28        0.0%
BITSFR28             0      0       0      29        0.0%
SFR28                0      0       0      29        0.0%
BITSFR29             0      0       0      30        0.0%
SFR29                0      0       0      30        0.0%
BITSFR30             0      0       0      31        0.0%
SFR30                0      0       0      31        0.0%
BITSFR31             0      0       0      32        0.0%
SFR31                0      0       0      32        0.0%


Microchip Technology PIC Macro Assembler V2.20 build 20200408173844 
Symbol Table                                                                                   Sun Oct 04 13:46:20 2020

                             l20 06CB                               l23 06BE                               l17 06D5  
                             l48 073A                               l91 06F1                               l68 074F  
                             l93 06F3                               l95 06F5                               l88 06E2  
                             l97 06F6                               l99 06F8                               u60 07B0  
                             u61 07AF                               u70 07CB                               u71 07CA  
                             u80 07E1                               u81 07E0                               u90 0718  
                             u91 0717                              l110 0702                              l112 0703  
                            l105 06FF                              l122 0711                              l114 0705  
                            l108 0700                              l132 07B0                              l150 07EB  
                            l119 070C                              l135 07B3                              l127 07A5  
                            l144 07D4                              l129 07A7                              l161 079E  
                            l146 07E1                              l138 07BA                              l155 0724  
                            l139 07CB                              l149 07E8                              l900 06F9  
                            l902 06FC                              l910 070B                              l904 06FE  
                            l912 070F                              l906 0706                              l930 07BD  
                            l922 07A9                              l914 07A0                              l908 0709  
                            l940 07D2                              l932 07C1                              l924 07AC  
                            l916 07A4                              l942 07D7                              l934 07C5  
                            l926 07B5                              l880 0725                              l952 06CC  
                            l944 07DC                              l936 07CD                              l928 07B8  
                            l960 0766                              l890 0735                              l882 0728  
                            l954 0713                              l946 07E3                              l938 07D0  
                            l970 078F                              l962 0779                              l892 06C5  
                            l884 072B                              l956 0718                              l948 07E6  
                            l964 077B                              l980 075F                              l972 073B  
                            l894 06C8                              l886 072D                              l958 071F  
                            l878 06D6                              l966 0785                              l974 073E  
                            l896 06C9                              l888 0730                              l968 0789  
                            l976 0747                              l898 06BB                              l978 0755  
                            u100 078F                              u101 078E                              u117 06DB  
                            wreg 0009                             _LATA 010C                             _LATB 010D  
                           _WPUA 020C                             _WPUB 020D                             _main 073B  
                  write_byte@ack 0074                             fsr0h 0005                             fsr1h 0007  
                           fsr0l 0004                             indf1 0001                             fsr1l 0006  
                           btemp 007E                             _stop 0700                             start 0003  
 __size_of_OSCILLATOR_Initialize 0007    __end_of_OSCILLATOR_Initialize 06CC                            ?_main 0070  
                          ?_stop 0070                            _TRISA 008C                            _TRISB 008D  
                 _WDT_Initialize 06BB                   write_byte@data 0075                            _start 06F1  
                          status 0003                            wtemp0 007E                  __initialization 07EC  
                   __end_of_main 0765                     __end_of_stop 0712                           ??_main 007C  
                         ??_stop 0072           __end_of_WDT_Initialize 06BF                  set_segments@pos 0078  
                         _ANSELA 018C                           _ANSELB 018D                           ?_start 0070  
                         _BORCON 0116                           _OSCCON 0099                           _WDTCON 0097  
                ?_WDT_Initialize 0070          __size_of_set_brigthness 0013                _SYSTEM_Initialize 06CC  
        __end_of__initialization 07FD               ?_SYSTEM_Initialize 0070         set_brigthness@brightness 0072  
                 __pcstackCOMMON 0070                     __pidataBANK0 06E3              ??_SYSTEM_Initialize 0070  
                  __end_of_start 0700               __size_of_bit_delay 000D                   _OPTION_REGbits 0095  
      __end_of_SYSTEM_Initialize 06D6                          ??_start 0072                       __pbssBANK0 0036  
                     __pmaintext 073B                          _APFCON0 011D                          _APFCON1 011E  
             set_segments@length 0077                          _OSCTUNE 0098                __end_of_bit_delay 06E3  
                  ?_set_segments 0077                          __ptext1 0765                          __ptext2 079F  
                        __ptext3 0700                          __ptext4 06F1                          __ptext5 06D6  
                        __ptext6 0712                          __ptext7 06CC                          __ptext8 06BB  
                        __ptext9 0725            _OSCILLATOR_Initialize 06C5                          _segdata 0020  
       ??_PIN_MANAGER_Initialize 0070                   _set_brigthness 0712       __size_of_SYSTEM_Initialize 000A  
           end_of_initialization 07FD                          init_ram 06BF                          initloop 06C0  
           set_segments@segments 007A                   ??_set_segments 0079                 ??_WDT_Initialize 0070  
                      _PORTBbits 000D                     _m_brightness 007D           __end_of_set_brigthness 0725  
                      _TRISBbits 008D                       _write_byte 079F           ?_OSCILLATOR_Initialize 0070  
            start_initialization 07EC                  ?_set_brigthness 0070  __size_of_PIN_MANAGER_Initialize 0016  
                    __pdataBANK0 0020                      __pbssCOMMON 007D                        ___latbits 0001  
                  __pcstackBANK0 002E             __end_of_set_segments 079F                 set_brigthness@on 0070  
         _PIN_MANAGER_Initialize 0725                        _bit_delay 06D6                      ?_write_byte 0070  
                 __size_of_start 000F                         _LATAbits 010C                         _LATBbits 010D  
                     ?_bit_delay 0070                        main@F2502 002A                        main@F2504 0036  
                      main@blank 002E                      write_byte@b 0073                      write_byte@i 0076  
            __size_of_write_byte 004D                    set_segments@k 007B          ??_OSCILLATOR_Initialize 0070  
               ??_set_brigthness 0071            __size_of_set_segments 003A                         __ptext10 06C5  
                  __size_of_main 002A                    __size_of_stop 0012                      ??_bit_delay 0070  
                       main@data 0032                     _set_segments 0765          __size_of_WDT_Initialize 0004  
        ?_PIN_MANAGER_Initialize 0070                     ??_write_byte 0072   __end_of_PIN_MANAGER_Initialize 073B  
             __end_of_write_byte 07EC  
